; Function Attrs: mustprogress nounwind uwtable
define internal fastcc void @_ZN4absl13cord_internal12_GLOBAL__N_19RefHelperD2Ev(ptr nocapture noundef nonnull readonly align 8 dereferenceable(24) %this) unnamed_addr #7 align 2 personality ptr @__gxx_personality_v0 {
entry:
  %0 = load ptr, ptr %this, align 8
  %_M_finish.i = getelementptr inbounds i8, ptr %this, i64 8
  %1 = load ptr, ptr %_M_finish.i, align 8
  %cmp.i.not4 = icmp eq ptr %0, %1
  br i1 %cmp.i.not4, label %for.end, label %for.body

for.body:                                         ; preds = %entry, %for.inc
  %__begin3.sroa.0.05 = phi ptr [ %incdec.ptr.i, %for.inc ], [ %0, %entry ]
  %2 = load ptr, ptr %__begin3.sroa.0.05, align 8
  %refcount.i = getelementptr inbounds i8, ptr %2, i64 8
  %3 = atomicrmw sub ptr %refcount.i, i32 2 acq_rel, align 4
  %cmp.i.not.i = icmp eq i32 %3, 2
  br i1 %cmp.i.not.i, label %if.then.i, label %for.inc

if.then.i:                                        ; preds = %for.body
  invoke void @_ZN4absl13cord_internal7CordRep7DestroyEPS1_(ptr noundef %2)
          to label %for.inc unwind label %terminate.lpad

for.inc:                                          ; preds = %for.body, %if.then.i
  %incdec.ptr.i = getelementptr inbounds i8, ptr %__begin3.sroa.0.05, i64 8
  %cmp.i.not = icmp eq ptr %incdec.ptr.i, %1
  br i1 %cmp.i.not, label %for.end.loopexit, label %for.body

for.end.loopexit:                                 ; preds = %for.inc
  %.pre = load ptr, ptr %this, align 8
  br label %for.end

for.end:                                          ; preds = %for.end.loopexit, %entry
  %4 = phi ptr [ %.pre, %for.end.loopexit ], [ %0, %entry ]
  %tobool.not.i.i.i = icmp eq ptr %4, null
  br i1 %tobool.not.i.i.i, label %_ZNSt6vectorIPN4absl13cord_internal7CordRepESaIS3_EED2Ev.exit, label %if.then.i.i.i

if.then.i.i.i:                                    ; preds = %for.end
  tail call void @_ZdlPv(ptr noundef nonnull %4) #21
  br label %_ZNSt6vectorIPN4absl13cord_internal7CordRepESaIS3_EED2Ev.exit

_ZNSt6vectorIPN4absl13cord_internal7CordRepESaIS3_EED2Ev.exit: ; preds = %for.end, %if.then.i.i.i
  ret void

terminate.lpad:                                   ; preds = %if.then.i
  %5 = landingpad { ptr, i32 }
          catch ptr null
  %6 = extractvalue { ptr, i32 } %5, 0
  tail call void @__clang_call_terminate(ptr %6) #24
  unreachable
}